target datalayout = "e-m:e-p270:32:32-p271:32:32-p272:64:64-i64:64-i128:128-f80:128-n8:16:32:64-S128"
target triple = "x86_64-pc-linux-gnu"

%struct.MinMaxCharLen = type { i32, i32, i32 }

; Function Attrs: nounwind uwtable
define internal i32 @distance_add(i32 noundef %0, i32 noundef %1) #0 {
  %3 = alloca i32, align 4
  %4 = alloca i32, align 4
  %5 = alloca i32, align 4
  store i32 %0, ptr %4, align 4, !tbaa !4
  store i32 %1, ptr %5, align 4, !tbaa !4
  %6 = load i32, ptr %4, align 4, !tbaa !4
  %7 = icmp eq i32 %6, -1
  br i1 %7, label %11, label %8

8:                                                ; preds = %2
  %9 = load i32, ptr %5, align 4, !tbaa !4
  %10 = icmp eq i32 %9, -1
  br i1 %10, label %11, label %12

11:                                               ; preds = %8, %2
  store i32 -1, ptr %3, align 4
  br label %22

12:                                               ; preds = %8
  %13 = load i32, ptr %4, align 4, !tbaa !4
  %14 = load i32, ptr %5, align 4, !tbaa !4
  %15 = sub i32 -1, %14
  %16 = icmp ule i32 %13, %15
  br i1 %16, label %17, label %21

17:                                               ; preds = %12
  %18 = load i32, ptr %4, align 4, !tbaa !4
  %19 = load i32, ptr %5, align 4, !tbaa !4
  %20 = add i32 %18, %19
  store i32 %20, ptr %3, align 4
  br label %22

21:                                               ; preds = %12
  store i32 -1, ptr %3, align 4
  br label %22

22:                                               ; preds = %21, %17, %11
  %23 = load i32, ptr %3, align 4
  ret i32 %23
}

; Function Attrs: nounwind uwtable
define internal void @mmcl_add(ptr noundef %0, ptr noundef %1) #0 {
  %3 = alloca ptr, align 8
  %4 = alloca ptr, align 8
  store ptr %0, ptr %3, align 8, !tbaa !15
  store ptr %1, ptr %4, align 8, !tbaa !15
  %5 = load ptr, ptr %3, align 8, !tbaa !15
  %6 = getelementptr inbounds nuw %struct.MinMaxCharLen, ptr %5, i32 0, i32 0
  %7 = load i32, ptr %6, align 4, !tbaa !253
  %8 = load ptr, ptr %4, align 8, !tbaa !15
  %9 = getelementptr inbounds nuw %struct.MinMaxCharLen, ptr %8, i32 0, i32 0
  %10 = load i32, ptr %9, align 4, !tbaa !253
  %11 = call i32 @distance_add(i32 noundef %7, i32 noundef %10)
  %12 = load ptr, ptr %3, align 8, !tbaa !15
  %13 = getelementptr inbounds nuw %struct.MinMaxCharLen, ptr %12, i32 0, i32 0
  store i32 %11, ptr %13, align 4, !tbaa !253
  %14 = load ptr, ptr %3, align 8, !tbaa !15
  %15 = getelementptr inbounds nuw %struct.MinMaxCharLen, ptr %14, i32 0, i32 1
  %16 = load i32, ptr %15, align 4, !tbaa !251
  %17 = load ptr, ptr %4, align 8, !tbaa !15
  %18 = getelementptr inbounds nuw %struct.MinMaxCharLen, ptr %17, i32 0, i32 1
  %19 = load i32, ptr %18, align 4, !tbaa !251
  %20 = call i32 @distance_add(i32 noundef %16, i32 noundef %19)
  %21 = load ptr, ptr %3, align 8, !tbaa !15
  %22 = getelementptr inbounds nuw %struct.MinMaxCharLen, ptr %21, i32 0, i32 1
  store i32 %20, ptr %22, align 4, !tbaa !251
  %23 = load ptr, ptr %4, align 8, !tbaa !15
  %24 = getelementptr inbounds nuw %struct.MinMaxCharLen, ptr %23, i32 0, i32 2
  %25 = load i32, ptr %24, align 4, !tbaa !254
  %26 = icmp ne i32 %25, 0
  br i1 %26, label %27, label %32

27:                                               ; preds = %2
  %28 = load ptr, ptr %3, align 8, !tbaa !15
  %29 = getelementptr inbounds nuw %struct.MinMaxCharLen, ptr %28, i32 0, i32 2
  %30 = load i32, ptr %29, align 4, !tbaa !254
  %31 = icmp ne i32 %30, 0
  br label %32

32:                                               ; preds = %27, %2
  %33 = phi i1 [ false, %2 ], [ %31, %27 ]
  %34 = zext i1 %33 to i32
  %35 = load ptr, ptr %3, align 8, !tbaa !15
  %36 = getelementptr inbounds nuw %struct.MinMaxCharLen, ptr %35, i32 0, i32 2
  store i32 %34, ptr %36, align 4, !tbaa !254
  ret void
}