; Function Attrs: mustprogress nofree norecurse nosync nounwind willreturn memory(argmem: readwrite) uwtable
define internal fastcc void @mmcl_add(ptr noundef nonnull captures(none) %0, ptr noundef nonnull readonly captures(none) %1) unnamed_addr #19 {
  %3 = load i32, ptr %0, align 4, !tbaa !279
  %4 = load i32, ptr %1, align 4, !tbaa !279
  %5 = icmp eq i32 %3, -1
  %6 = icmp eq i32 %4, -1
  %or.cond.i = or i1 %5, %6
  %7 = xor i32 %4, -1
  %.not.i = icmp ugt i32 %3, %7
  %or.cond10.i = or i1 %.not.i, %or.cond.i
  %8 = add i32 %4, %3
  %.0.i = select i1 %or.cond10.i, i32 -1, i32 %8
  store i32 %.0.i, ptr %0, align 4, !tbaa !279
  %9 = getelementptr inbounds nuw i8, ptr %0, i64 4
  %10 = load i32, ptr %9, align 4, !tbaa !241
  %11 = getelementptr inbounds nuw i8, ptr %1, i64 4
  %12 = load i32, ptr %11, align 4, !tbaa !241
  %13 = icmp eq i32 %10, -1
  %14 = icmp eq i32 %12, -1
  %or.cond.i9 = or i1 %13, %14
  %15 = xor i32 %12, -1
  %.not.i10 = icmp ugt i32 %10, %15
  %or.cond10.i11 = or i1 %.not.i10, %or.cond.i9
  %16 = add i32 %12, %10
  %.0.i12 = select i1 %or.cond10.i11, i32 -1, i32 %16
  store i32 %.0.i12, ptr %9, align 4, !tbaa !241
  %17 = getelementptr inbounds nuw i8, ptr %1, i64 8
  %18 = load i32, ptr %17, align 4, !tbaa !280
  %.not = icmp eq i32 %18, 0
  br i1 %.not, label %24, label %19

19:                                               ; preds = %2
  %20 = getelementptr inbounds nuw i8, ptr %0, i64 8
  %21 = load i32, ptr %20, align 4, !tbaa !280
  %22 = icmp ne i32 %21, 0
  %23 = zext i1 %22 to i32
  br label %24

24:                                               ; preds = %19, %2
  %25 = phi i32 [ 0, %2 ], [ %23, %19 ]
  %26 = getelementptr inbounds nuw i8, ptr %0, i64 8
  store i32 %25, ptr %26, align 4, !tbaa !280
  ret void
}